; Function Attrs: mustprogress uwtable
define void @_ZNK10open_spiel8efg_game8EFGState14ActionToStringB5cxx11Eil(ptr dead_on_unwind noalias writable sret(%"class.std::__cxx11::basic_string") align 8 %0, ptr noundef nonnull readonly align 8 captures(none) dereferenceable(72) %1, i32 %2, i64 noundef %3) unnamed_addr #3 align 2 personality ptr @__gxx_personality_v0 {
  %5 = alloca i32, align 4
  %6 = alloca i32, align 4
  %7 = alloca %"class.std::__cxx11::basic_string", align 8
  %8 = alloca i32, align 4
  %9 = alloca i32, align 4
  %10 = alloca i64, align 8
  %11 = alloca %"class.std::__cxx11::basic_string", align 8
  %12 = alloca i32, align 4
  %13 = getelementptr inbounds nuw i8, ptr %1, i64 64
  %14 = load ptr, ptr %13, align 8
  %15 = getelementptr inbounds nuw i8, ptr %14, i64 152
  %16 = getelementptr inbounds nuw i8, ptr %14, i64 160
  %17 = load ptr, ptr %16, align 8
  %18 = load ptr, ptr %15, align 8
  %.not.i = icmp eq ptr %17, %18
  br i1 %.not.i, label %_ZNK10open_spiel8efg_game8EFGState9ActionIdxEl.exit.thread, label %.lr.ph.preheader.i

.lr.ph.preheader.i:                               ; preds = %4
  %19 = ptrtoint ptr %17 to i64
  %20 = ptrtoint ptr %18 to i64
  %21 = sub i64 %19, %20
  %22 = ashr exact i64 %21, 3
  %umax.i = tail call i64 @llvm.umax.i64(i64 %22, i64 1)
  br label %.lr.ph.i

.lr.ph.i:                                         ; preds = %26, %.lr.ph.preheader.i
  %indvars.iv.i = phi i64 [ 0, %.lr.ph.preheader.i ], [ %indvars.iv.next.i, %26 ]
  %23 = getelementptr inbounds nuw i64, ptr %18, i64 %indvars.iv.i
  %24 = load i64, ptr %23, align 8
  %25 = icmp eq i64 %3, %24
  br i1 %25, label %_ZNK10open_spiel8efg_game8EFGState9ActionIdxEl.exit, label %26

26:                                               ; preds = %.lr.ph.i
  %indvars.iv.next.i = add nuw i64 %indvars.iv.i, 1
  %exitcond.not.i = icmp eq i64 %indvars.iv.next.i, %umax.i
  br i1 %exitcond.not.i, label %_ZNK10open_spiel8efg_game8EFGState9ActionIdxEl.exit.thread, label %.lr.ph.i, !llvm.loop !4

_ZNK10open_spiel8efg_game8EFGState9ActionIdxEl.exit.thread: ; preds = %26, %4
  store i32 -1, ptr %5, align 4
  store i32 0, ptr %6, align 4
  br label %29

_ZNK10open_spiel8efg_game8EFGState9ActionIdxEl.exit: ; preds = %.lr.ph.i
  %27 = trunc nuw nsw i64 %indvars.iv.i to i32
  store i32 %27, ptr %5, align 4
  store i32 0, ptr %6, align 4
  %28 = icmp sgt i64 %indvars.iv.i, -1
  br i1 %28, label %33, label %29

29:                                               ; preds = %_ZNK10open_spiel8efg_game8EFGState9ActionIdxEl.exit.thread, %_ZNK10open_spiel8efg_game8EFGState9ActionIdxEl.exit
  store i32 115, ptr %8, align 4
  call void @_ZN10open_spiel8internal11SpielStrCatIJRA136_KcRA2_S2_iS6_RA16_S2_RA12_S2_RA4_S2_RiRA7_S2_SD_EEENSt7__cxx1112basic_stringIcSt11char_traitsIcESaIcEEEDpOT_(ptr dead_on_unwind nonnull writable sret(%"class.std::__cxx11::basic_string") align 8 %7, ptr noundef nonnull align 1 dereferenceable(136) @.str.6, ptr noundef nonnull align 1 dereferenceable(2) @.str.7, ptr noundef nonnull align 4 dereferenceable(4) %8, ptr noundef nonnull align 1 dereferenceable(2) @.str.8, ptr noundef nonnull align 1 dereferenceable(16) @.str.15, ptr noundef nonnull align 1 dereferenceable(12) @.str.16, ptr noundef nonnull align 1 dereferenceable(4) @.str.11, ptr noundef nonnull align 4 dereferenceable(4) %5, ptr noundef nonnull align 1 dereferenceable(7) @.str.17, ptr noundef nonnull align 4 dereferenceable(4) %6)
  invoke void @_ZN10open_spiel15SpielFatalErrorERKNSt7__cxx1112basic_stringIcSt11char_traitsIcESaIcEEE(ptr noundef nonnull align 8 dereferenceable(32) %7) #28
          to label %30 unwind label %31

30:                                               ; preds = %29
  unreachable

31:                                               ; preds = %29
  %32 = landingpad { ptr, i32 }
          cleanup
  br label %50

33:                                               ; preds = %_ZNK10open_spiel8efg_game8EFGState9ActionIdxEl.exit
  store i32 %27, ptr %9, align 4
  %34 = getelementptr inbounds nuw i8, ptr %14, i64 128
  %35 = getelementptr inbounds nuw i8, ptr %14, i64 136
  %36 = load ptr, ptr %35, align 8
  %37 = load ptr, ptr %34, align 8
  %38 = ptrtoint ptr %36 to i64
  %39 = ptrtoint ptr %37 to i64
  %40 = sub i64 %38, %39
  %41 = ashr exact i64 %40, 5
  store i64 %41, ptr %10, align 8
  %42 = and i64 %indvars.iv.i, 4294967295
  %43 = icmp ugt i64 %41, %42
  br i1 %43, label %48, label %44

44:                                               ; preds = %33
  store i32 116, ptr %12, align 4
  call void @_ZN10open_spiel8internal11SpielStrCatIJRA136_KcRA2_S2_iS6_RA39_S2_RA12_S2_RA4_S2_RiRA31_S2_RmEEENSt7__cxx1112basic_stringIcSt11char_traitsIcESaIcEEEDpOT_(ptr dead_on_unwind nonnull writable sret(%"class.std::__cxx11::basic_string") align 8 %11, ptr noundef nonnull align 1 dereferenceable(136) @.str.6, ptr noundef nonnull align 1 dereferenceable(2) @.str.7, ptr noundef nonnull align 4 dereferenceable(4) %12, ptr noundef nonnull align 1 dereferenceable(2) @.str.8, ptr noundef nonnull align 1 dereferenceable(39) @.str.18, ptr noundef nonnull align 1 dereferenceable(12) @.str.16, ptr noundef nonnull align 1 dereferenceable(4) @.str.11, ptr noundef nonnull align 4 dereferenceable(4) %9, ptr noundef nonnull align 1 dereferenceable(31) @.str.19, ptr noundef nonnull align 8 dereferenceable(8) %10)
  invoke void @_ZN10open_spiel15SpielFatalErrorERKNSt7__cxx1112basic_stringIcSt11char_traitsIcESaIcEEE(ptr noundef nonnull align 8 dereferenceable(32) %11) #28
          to label %45 unwind label %46

45:                                               ; preds = %44
  unreachable

46:                                               ; preds = %44
  %47 = landingpad { ptr, i32 }
          cleanup
  br label %50

48:                                               ; preds = %33
  %49 = getelementptr inbounds nuw %"class.std::__cxx11::basic_string", ptr %37, i64 %42
  tail call void @_ZNSt7__cxx1112basic_stringIcSt11char_traitsIcESaIcEEC1ERKS4_(ptr noundef nonnull align 8 dereferenceable(32) %0, ptr noundef nonnull align 8 dereferenceable(32) %49)
  ret void

50:                                               ; preds = %46, %31
  %.sink = phi ptr [ %11, %46 ], [ %7, %31 ]
  %.pn = phi { ptr, i32 } [ %47, %46 ], [ %32, %31 ]
  call void @_ZNSt7__cxx1112basic_stringIcSt11char_traitsIcESaIcEED1Ev(ptr noundef nonnull align 8 dereferenceable(32) %.sink) #29
  resume { ptr, i32 } %.pn
}